ARM GAS  C:\Users\phong\AppData\Local\Temp\ccw7LjCa.s 			page 1


   1              		.cpu cortex-m3
   2              		.arch armv7-m
   3              		.fpu softvfp
   4              		.eabi_attribute 20, 1
   5              		.eabi_attribute 21, 1
   6              		.eabi_attribute 23, 3
   7              		.eabi_attribute 24, 1
   8              		.eabi_attribute 25, 1
   9              		.eabi_attribute 26, 1
  10              		.eabi_attribute 30, 1
  11              		.eabi_attribute 34, 1
  12              		.eabi_attribute 18, 4
  13              		.file	"main.c"
  14              		.text
  15              	.Ltext0:
  16              		.cfi_sections	.debug_frame
  17              		.file 1 "Core/Src/main.c"
  18              		.section	.text.MX_GPIO_Init,"ax",%progbits
  19              		.align	1
  20              		.syntax unified
  21              		.thumb
  22              		.thumb_func
  24              	MX_GPIO_Init:
  25              	.LFB68:
   1:Core/Src/main.c **** /* USER CODE BEGIN Header */
   2:Core/Src/main.c **** /**
   3:Core/Src/main.c ****  ******************************************************************************
   4:Core/Src/main.c ****  * @file           : main.c
   5:Core/Src/main.c ****  * @brief          : Main program body
   6:Core/Src/main.c ****  ******************************************************************************
   7:Core/Src/main.c ****  * @attention
   8:Core/Src/main.c ****  *
   9:Core/Src/main.c ****  * Copyright (c) 2023 STMicroelectronics.
  10:Core/Src/main.c ****  * All rights reserved.
  11:Core/Src/main.c ****  *
  12:Core/Src/main.c ****  * This software is licensed under terms that can be found in the LICENSE file
  13:Core/Src/main.c ****  * in the root directory of this software component.
  14:Core/Src/main.c ****  * If no LICENSE file comes with this software, it is provided AS-IS.
  15:Core/Src/main.c ****  *
  16:Core/Src/main.c ****  ******************************************************************************
  17:Core/Src/main.c ****  */
  18:Core/Src/main.c **** /* USER CODE END Header */
  19:Core/Src/main.c **** /* Includes ------------------------------------------------------------------*/
  20:Core/Src/main.c **** #include "main.h"
  21:Core/Src/main.c **** 
  22:Core/Src/main.c **** /* Private includes ----------------------------------------------------------*/
  23:Core/Src/main.c **** /* USER CODE BEGIN Includes */
  24:Core/Src/main.c **** #include "software_timer.h"
  25:Core/Src/main.c **** #include "7segmentLED.h"
  26:Core/Src/main.c **** /* USER CODE END Includes */
  27:Core/Src/main.c **** 
  28:Core/Src/main.c **** /* Private typedef -----------------------------------------------------------*/
  29:Core/Src/main.c **** /* USER CODE BEGIN PTD */
  30:Core/Src/main.c **** 
  31:Core/Src/main.c **** /* USER CODE END PTD */
  32:Core/Src/main.c **** 
  33:Core/Src/main.c **** /* Private define ------------------------------------------------------------*/
ARM GAS  C:\Users\phong\AppData\Local\Temp\ccw7LjCa.s 			page 2


  34:Core/Src/main.c **** /* USER CODE BEGIN PD */
  35:Core/Src/main.c **** 
  36:Core/Src/main.c **** /* USER CODE END PD */
  37:Core/Src/main.c **** 
  38:Core/Src/main.c **** /* Private macro -------------------------------------------------------------*/
  39:Core/Src/main.c **** /* USER CODE BEGIN PM */
  40:Core/Src/main.c **** 
  41:Core/Src/main.c **** /* USER CODE END PM */
  42:Core/Src/main.c **** 
  43:Core/Src/main.c **** /* Private variables ---------------------------------------------------------*/
  44:Core/Src/main.c **** TIM_HandleTypeDef htim2;
  45:Core/Src/main.c **** 
  46:Core/Src/main.c **** /* USER CODE BEGIN PV */
  47:Core/Src/main.c **** 
  48:Core/Src/main.c **** /* USER CODE END PV */
  49:Core/Src/main.c **** 
  50:Core/Src/main.c **** /* Private function prototypes -----------------------------------------------*/
  51:Core/Src/main.c **** void SystemClock_Config(void);
  52:Core/Src/main.c **** static void MX_GPIO_Init(void);
  53:Core/Src/main.c **** static void MX_TIM2_Init(void);
  54:Core/Src/main.c **** /* USER CODE BEGIN PFP */
  55:Core/Src/main.c **** 
  56:Core/Src/main.c **** /* USER CODE END PFP */
  57:Core/Src/main.c **** 
  58:Core/Src/main.c **** /* Private user code ---------------------------------------------------------*/
  59:Core/Src/main.c **** /* USER CODE BEGIN 0 */
  60:Core/Src/main.c **** /* USER CODE END 0 */
  61:Core/Src/main.c **** 
  62:Core/Src/main.c **** /**
  63:Core/Src/main.c ****  * @brief  The application entry point.
  64:Core/Src/main.c ****  * @retval int
  65:Core/Src/main.c ****  */
  66:Core/Src/main.c **** int main(void)
  67:Core/Src/main.c **** {
  68:Core/Src/main.c ****   /* USER CODE BEGIN 1 */
  69:Core/Src/main.c **** 
  70:Core/Src/main.c ****   /* USER CODE END 1 */
  71:Core/Src/main.c **** 
  72:Core/Src/main.c ****   /* MCU Configuration--------------------------------------------------------*/
  73:Core/Src/main.c **** 
  74:Core/Src/main.c ****   /* Reset of all peripherals, Initializes the Flash interface and the Systick. */
  75:Core/Src/main.c ****   HAL_Init();
  76:Core/Src/main.c **** 
  77:Core/Src/main.c ****   /* USER CODE BEGIN Init */
  78:Core/Src/main.c **** 
  79:Core/Src/main.c ****   /* USER CODE END Init */
  80:Core/Src/main.c **** 
  81:Core/Src/main.c ****   /* Configure the system clock */
  82:Core/Src/main.c ****   SystemClock_Config();
  83:Core/Src/main.c **** 
  84:Core/Src/main.c ****   /* USER CODE BEGIN SysInit */
  85:Core/Src/main.c **** 
  86:Core/Src/main.c ****   /* USER CODE END SysInit */
  87:Core/Src/main.c **** 
  88:Core/Src/main.c ****   /* Initialize all configured peripherals */
  89:Core/Src/main.c ****   MX_GPIO_Init();
  90:Core/Src/main.c ****   MX_TIM2_Init();
ARM GAS  C:\Users\phong\AppData\Local\Temp\ccw7LjCa.s 			page 3


  91:Core/Src/main.c ****   /* USER CODE BEGIN 2 */
  92:Core/Src/main.c ****   HAL_TIM_Base_Start_IT(&htim2);
  93:Core/Src/main.c ****   setTimer1(50);
  94:Core/Src/main.c ****   clearDisplay7Seg();
  95:Core/Src/main.c ****   int num = 0;
  96:Core/Src/main.c ****   HAL_GPIO_WritePin(EN0_GPIO_Port, EN0_Pin, 0);
  97:Core/Src/main.c ****   HAL_GPIO_WritePin(EN1_GPIO_Port, EN1_Pin, 1);
  98:Core/Src/main.c ****   /* USER CODE END 2 */
  99:Core/Src/main.c **** 
 100:Core/Src/main.c ****   /* Infinite loop */
 101:Core/Src/main.c ****   /* USER CODE BEGIN WHILE */
 102:Core/Src/main.c ****   while (1)
 103:Core/Src/main.c ****   {
 104:Core/Src/main.c ****     if (timer1_flag == 1)
 105:Core/Src/main.c ****     {
 106:Core/Src/main.c ****       display7Seg(num % 9);
 107:Core/Src/main.c ****       num++;
 108:Core/Src/main.c ****       HAL_GPIO_TogglePin(EN0_GPIO_Port, EN0_Pin);
 109:Core/Src/main.c ****       HAL_GPIO_TogglePin(EN1_GPIO_Port, EN1_Pin);
 110:Core/Src/main.c ****       setTimer1(50);
 111:Core/Src/main.c ****     }
 112:Core/Src/main.c ****     /* USER CODE END WHILE */
 113:Core/Src/main.c **** 
 114:Core/Src/main.c ****     /* USER CODE BEGIN 3 */
 115:Core/Src/main.c ****   }
 116:Core/Src/main.c ****   /* USER CODE END 3 */
 117:Core/Src/main.c **** }
 118:Core/Src/main.c **** 
 119:Core/Src/main.c **** /**
 120:Core/Src/main.c ****  * @brief System Clock Configuration
 121:Core/Src/main.c ****  * @retval None
 122:Core/Src/main.c ****  */
 123:Core/Src/main.c **** void SystemClock_Config(void)
 124:Core/Src/main.c **** {
 125:Core/Src/main.c ****   RCC_OscInitTypeDef RCC_OscInitStruct = {0};
 126:Core/Src/main.c ****   RCC_ClkInitTypeDef RCC_ClkInitStruct = {0};
 127:Core/Src/main.c **** 
 128:Core/Src/main.c ****   /** Initializes the RCC Oscillators according to the specified parameters
 129:Core/Src/main.c ****    * in the RCC_OscInitTypeDef structure.
 130:Core/Src/main.c ****    */
 131:Core/Src/main.c ****   RCC_OscInitStruct.OscillatorType = RCC_OSCILLATORTYPE_HSI;
 132:Core/Src/main.c ****   RCC_OscInitStruct.HSIState = RCC_HSI_ON;
 133:Core/Src/main.c ****   RCC_OscInitStruct.HSICalibrationValue = RCC_HSICALIBRATION_DEFAULT;
 134:Core/Src/main.c ****   RCC_OscInitStruct.PLL.PLLState = RCC_PLL_NONE;
 135:Core/Src/main.c ****   if (HAL_RCC_OscConfig(&RCC_OscInitStruct) != HAL_OK)
 136:Core/Src/main.c ****   {
 137:Core/Src/main.c ****     Error_Handler();
 138:Core/Src/main.c ****   }
 139:Core/Src/main.c **** 
 140:Core/Src/main.c ****   /** Initializes the CPU, AHB and APB buses clocks
 141:Core/Src/main.c ****    */
 142:Core/Src/main.c ****   RCC_ClkInitStruct.ClockType = RCC_CLOCKTYPE_HCLK | RCC_CLOCKTYPE_SYSCLK | RCC_CLOCKTYPE_PCLK1 | R
 143:Core/Src/main.c ****   RCC_ClkInitStruct.SYSCLKSource = RCC_SYSCLKSOURCE_HSI;
 144:Core/Src/main.c ****   RCC_ClkInitStruct.AHBCLKDivider = RCC_SYSCLK_DIV1;
 145:Core/Src/main.c ****   RCC_ClkInitStruct.APB1CLKDivider = RCC_HCLK_DIV1;
 146:Core/Src/main.c ****   RCC_ClkInitStruct.APB2CLKDivider = RCC_HCLK_DIV1;
 147:Core/Src/main.c **** 
ARM GAS  C:\Users\phong\AppData\Local\Temp\ccw7LjCa.s 			page 4


 148:Core/Src/main.c ****   if (HAL_RCC_ClockConfig(&RCC_ClkInitStruct, FLASH_LATENCY_0) != HAL_OK)
 149:Core/Src/main.c ****   {
 150:Core/Src/main.c ****     Error_Handler();
 151:Core/Src/main.c ****   }
 152:Core/Src/main.c **** }
 153:Core/Src/main.c **** 
 154:Core/Src/main.c **** /**
 155:Core/Src/main.c ****  * @brief TIM2 Initialization Function
 156:Core/Src/main.c ****  * @param None
 157:Core/Src/main.c ****  * @retval None
 158:Core/Src/main.c ****  */
 159:Core/Src/main.c **** static void MX_TIM2_Init(void)
 160:Core/Src/main.c **** {
 161:Core/Src/main.c **** 
 162:Core/Src/main.c ****   /* USER CODE BEGIN TIM2_Init 0 */
 163:Core/Src/main.c **** 
 164:Core/Src/main.c ****   /* USER CODE END TIM2_Init 0 */
 165:Core/Src/main.c **** 
 166:Core/Src/main.c ****   TIM_ClockConfigTypeDef sClockSourceConfig = {0};
 167:Core/Src/main.c ****   TIM_MasterConfigTypeDef sMasterConfig = {0};
 168:Core/Src/main.c **** 
 169:Core/Src/main.c ****   /* USER CODE BEGIN TIM2_Init 1 */
 170:Core/Src/main.c **** 
 171:Core/Src/main.c ****   /* USER CODE END TIM2_Init 1 */
 172:Core/Src/main.c ****   htim2.Instance = TIM2;
 173:Core/Src/main.c ****   htim2.Init.Prescaler = 7999;
 174:Core/Src/main.c ****   htim2.Init.CounterMode = TIM_COUNTERMODE_UP;
 175:Core/Src/main.c ****   htim2.Init.Period = 9;
 176:Core/Src/main.c ****   htim2.Init.ClockDivision = TIM_CLOCKDIVISION_DIV1;
 177:Core/Src/main.c ****   htim2.Init.AutoReloadPreload = TIM_AUTORELOAD_PRELOAD_DISABLE;
 178:Core/Src/main.c ****   if (HAL_TIM_Base_Init(&htim2) != HAL_OK)
 179:Core/Src/main.c ****   {
 180:Core/Src/main.c ****     Error_Handler();
 181:Core/Src/main.c ****   }
 182:Core/Src/main.c ****   sClockSourceConfig.ClockSource = TIM_CLOCKSOURCE_INTERNAL;
 183:Core/Src/main.c ****   if (HAL_TIM_ConfigClockSource(&htim2, &sClockSourceConfig) != HAL_OK)
 184:Core/Src/main.c ****   {
 185:Core/Src/main.c ****     Error_Handler();
 186:Core/Src/main.c ****   }
 187:Core/Src/main.c ****   sMasterConfig.MasterOutputTrigger = TIM_TRGO_RESET;
 188:Core/Src/main.c ****   sMasterConfig.MasterSlaveMode = TIM_MASTERSLAVEMODE_DISABLE;
 189:Core/Src/main.c ****   if (HAL_TIMEx_MasterConfigSynchronization(&htim2, &sMasterConfig) != HAL_OK)
 190:Core/Src/main.c ****   {
 191:Core/Src/main.c ****     Error_Handler();
 192:Core/Src/main.c ****   }
 193:Core/Src/main.c ****   /* USER CODE BEGIN TIM2_Init 2 */
 194:Core/Src/main.c **** 
 195:Core/Src/main.c ****   /* USER CODE END TIM2_Init 2 */
 196:Core/Src/main.c **** }
 197:Core/Src/main.c **** 
 198:Core/Src/main.c **** /**
 199:Core/Src/main.c ****  * @brief GPIO Initialization Function
 200:Core/Src/main.c ****  * @param None
 201:Core/Src/main.c ****  * @retval None
 202:Core/Src/main.c ****  */
 203:Core/Src/main.c **** static void MX_GPIO_Init(void)
 204:Core/Src/main.c **** {
ARM GAS  C:\Users\phong\AppData\Local\Temp\ccw7LjCa.s 			page 5


  26              		.loc 1 204 1 view -0
  27              		.cfi_startproc
  28              		@ args = 0, pretend = 0, frame = 24
  29              		@ frame_needed = 0, uses_anonymous_args = 0
  30 0000 2DE9F041 		push	{r4, r5, r6, r7, r8, lr}
  31              	.LCFI0:
  32              		.cfi_def_cfa_offset 24
  33              		.cfi_offset 4, -24
  34              		.cfi_offset 5, -20
  35              		.cfi_offset 6, -16
  36              		.cfi_offset 7, -12
  37              		.cfi_offset 8, -8
  38              		.cfi_offset 14, -4
  39 0004 86B0     		sub	sp, sp, #24
  40              	.LCFI1:
  41              		.cfi_def_cfa_offset 48
 205:Core/Src/main.c ****   GPIO_InitTypeDef GPIO_InitStruct = {0};
  42              		.loc 1 205 3 view .LVU1
  43              		.loc 1 205 20 is_stmt 0 view .LVU2
  44 0006 0024     		movs	r4, #0
  45 0008 0294     		str	r4, [sp, #8]
  46 000a 0394     		str	r4, [sp, #12]
  47 000c 0494     		str	r4, [sp, #16]
  48 000e 0594     		str	r4, [sp, #20]
 206:Core/Src/main.c ****   /* USER CODE BEGIN MX_GPIO_Init_1 */
 207:Core/Src/main.c ****   /* USER CODE END MX_GPIO_Init_1 */
 208:Core/Src/main.c **** 
 209:Core/Src/main.c ****   /* GPIO Ports Clock Enable */
 210:Core/Src/main.c ****   __HAL_RCC_GPIOA_CLK_ENABLE();
  49              		.loc 1 210 3 is_stmt 1 view .LVU3
  50              	.LBB4:
  51              		.loc 1 210 3 view .LVU4
  52              		.loc 1 210 3 view .LVU5
  53 0010 1B4B     		ldr	r3, .L3
  54 0012 9A69     		ldr	r2, [r3, #24]
  55 0014 42F00402 		orr	r2, r2, #4
  56 0018 9A61     		str	r2, [r3, #24]
  57              		.loc 1 210 3 view .LVU6
  58 001a 9A69     		ldr	r2, [r3, #24]
  59 001c 02F00402 		and	r2, r2, #4
  60 0020 0092     		str	r2, [sp]
  61              		.loc 1 210 3 view .LVU7
  62 0022 009A     		ldr	r2, [sp]
  63              	.LBE4:
  64              		.loc 1 210 3 view .LVU8
 211:Core/Src/main.c ****   __HAL_RCC_GPIOB_CLK_ENABLE();
  65              		.loc 1 211 3 view .LVU9
  66              	.LBB5:
  67              		.loc 1 211 3 view .LVU10
  68              		.loc 1 211 3 view .LVU11
  69 0024 9A69     		ldr	r2, [r3, #24]
  70 0026 42F00802 		orr	r2, r2, #8
  71 002a 9A61     		str	r2, [r3, #24]
  72              		.loc 1 211 3 view .LVU12
  73 002c 9B69     		ldr	r3, [r3, #24]
  74 002e 03F00803 		and	r3, r3, #8
  75 0032 0193     		str	r3, [sp, #4]
ARM GAS  C:\Users\phong\AppData\Local\Temp\ccw7LjCa.s 			page 6


  76              		.loc 1 211 3 view .LVU13
  77 0034 019B     		ldr	r3, [sp, #4]
  78              	.LBE5:
  79              		.loc 1 211 3 view .LVU14
 212:Core/Src/main.c **** 
 213:Core/Src/main.c ****   /*Configure GPIO pin Output Level */
 214:Core/Src/main.c ****   HAL_GPIO_WritePin(GPIOA, LED_Pin | EN0_Pin | EN1_Pin, GPIO_PIN_RESET);
  80              		.loc 1 214 3 view .LVU15
  81 0036 DFF84C80 		ldr	r8, .L3+4
  82 003a 2246     		mov	r2, r4
  83 003c E021     		movs	r1, #224
  84 003e 4046     		mov	r0, r8
  85 0040 FFF7FEFF 		bl	HAL_GPIO_WritePin
  86              	.LVL0:
 215:Core/Src/main.c **** 
 216:Core/Src/main.c ****   /*Configure GPIO pin Output Level */
 217:Core/Src/main.c ****   HAL_GPIO_WritePin(GPIOB, SEG0_Pin | SEG1_Pin | SEG2_Pin | SEG3_Pin | SEG4_Pin | SEG5_Pin | SEG6_P
  87              		.loc 1 217 3 view .LVU16
  88 0044 104D     		ldr	r5, .L3+8
  89 0046 2246     		mov	r2, r4
  90 0048 7F21     		movs	r1, #127
  91 004a 2846     		mov	r0, r5
  92 004c FFF7FEFF 		bl	HAL_GPIO_WritePin
  93              	.LVL1:
 218:Core/Src/main.c **** 
 219:Core/Src/main.c ****   /*Configure GPIO pins : LED_Pin EN0_Pin EN1_Pin */
 220:Core/Src/main.c ****   GPIO_InitStruct.Pin = LED_Pin | EN0_Pin | EN1_Pin;
  94              		.loc 1 220 3 view .LVU17
  95              		.loc 1 220 23 is_stmt 0 view .LVU18
  96 0050 E023     		movs	r3, #224
  97 0052 0293     		str	r3, [sp, #8]
 221:Core/Src/main.c ****   GPIO_InitStruct.Mode = GPIO_MODE_OUTPUT_PP;
  98              		.loc 1 221 3 is_stmt 1 view .LVU19
  99              		.loc 1 221 24 is_stmt 0 view .LVU20
 100 0054 0127     		movs	r7, #1
 101 0056 0397     		str	r7, [sp, #12]
 222:Core/Src/main.c ****   GPIO_InitStruct.Pull = GPIO_NOPULL;
 102              		.loc 1 222 3 is_stmt 1 view .LVU21
 103              		.loc 1 222 24 is_stmt 0 view .LVU22
 104 0058 0494     		str	r4, [sp, #16]
 223:Core/Src/main.c ****   GPIO_InitStruct.Speed = GPIO_SPEED_FREQ_LOW;
 105              		.loc 1 223 3 is_stmt 1 view .LVU23
 106              		.loc 1 223 25 is_stmt 0 view .LVU24
 107 005a 0226     		movs	r6, #2
 108 005c 0596     		str	r6, [sp, #20]
 224:Core/Src/main.c ****   HAL_GPIO_Init(GPIOA, &GPIO_InitStruct);
 109              		.loc 1 224 3 is_stmt 1 view .LVU25
 110 005e 02A9     		add	r1, sp, #8
 111 0060 4046     		mov	r0, r8
 112 0062 FFF7FEFF 		bl	HAL_GPIO_Init
 113              	.LVL2:
 225:Core/Src/main.c **** 
 226:Core/Src/main.c ****   /*Configure GPIO pins : SEG0_Pin SEG1_Pin SEG2_Pin SEG3_Pin
 227:Core/Src/main.c ****                            SEG4_Pin SEG5_Pin SEG6_Pin */
 228:Core/Src/main.c ****   GPIO_InitStruct.Pin = SEG0_Pin | SEG1_Pin | SEG2_Pin | SEG3_Pin | SEG4_Pin | SEG5_Pin | SEG6_Pin;
 114              		.loc 1 228 3 view .LVU26
 115              		.loc 1 228 23 is_stmt 0 view .LVU27
ARM GAS  C:\Users\phong\AppData\Local\Temp\ccw7LjCa.s 			page 7


 116 0066 7F23     		movs	r3, #127
 117 0068 0293     		str	r3, [sp, #8]
 229:Core/Src/main.c ****   GPIO_InitStruct.Mode = GPIO_MODE_OUTPUT_PP;
 118              		.loc 1 229 3 is_stmt 1 view .LVU28
 119              		.loc 1 229 24 is_stmt 0 view .LVU29
 120 006a 0397     		str	r7, [sp, #12]
 230:Core/Src/main.c ****   GPIO_InitStruct.Pull = GPIO_NOPULL;
 121              		.loc 1 230 3 is_stmt 1 view .LVU30
 122              		.loc 1 230 24 is_stmt 0 view .LVU31
 123 006c 0494     		str	r4, [sp, #16]
 231:Core/Src/main.c ****   GPIO_InitStruct.Speed = GPIO_SPEED_FREQ_LOW;
 124              		.loc 1 231 3 is_stmt 1 view .LVU32
 125              		.loc 1 231 25 is_stmt 0 view .LVU33
 126 006e 0596     		str	r6, [sp, #20]
 232:Core/Src/main.c ****   HAL_GPIO_Init(GPIOB, &GPIO_InitStruct);
 127              		.loc 1 232 3 is_stmt 1 view .LVU34
 128 0070 02A9     		add	r1, sp, #8
 129 0072 2846     		mov	r0, r5
 130 0074 FFF7FEFF 		bl	HAL_GPIO_Init
 131              	.LVL3:
 233:Core/Src/main.c **** 
 234:Core/Src/main.c ****   /* USER CODE BEGIN MX_GPIO_Init_2 */
 235:Core/Src/main.c ****   /* USER CODE END MX_GPIO_Init_2 */
 236:Core/Src/main.c **** }
 132              		.loc 1 236 1 is_stmt 0 view .LVU35
 133 0078 06B0     		add	sp, sp, #24
 134              	.LCFI2:
 135              		.cfi_def_cfa_offset 24
 136              		@ sp needed
 137 007a BDE8F081 		pop	{r4, r5, r6, r7, r8, pc}
 138              	.L4:
 139 007e 00BF     		.align	2
 140              	.L3:
 141 0080 00100240 		.word	1073876992
 142 0084 00080140 		.word	1073809408
 143 0088 000C0140 		.word	1073810432
 144              		.cfi_endproc
 145              	.LFE68:
 147              		.section	.text.HAL_TIM_PeriodElapsedCallback,"ax",%progbits
 148              		.align	1
 149              		.global	HAL_TIM_PeriodElapsedCallback
 150              		.syntax unified
 151              		.thumb
 152              		.thumb_func
 154              	HAL_TIM_PeriodElapsedCallback:
 155              	.LVL4:
 156              	.LFB69:
 237:Core/Src/main.c **** 
 238:Core/Src/main.c **** /* USER CODE BEGIN 4 */
 239:Core/Src/main.c **** void HAL_TIM_PeriodElapsedCallback(TIM_HandleTypeDef *htim)
 240:Core/Src/main.c **** {
 157              		.loc 1 240 1 is_stmt 1 view -0
 158              		.cfi_startproc
 159              		@ args = 0, pretend = 0, frame = 0
 160              		@ frame_needed = 0, uses_anonymous_args = 0
 161              		.loc 1 240 1 is_stmt 0 view .LVU37
 162 0000 08B5     		push	{r3, lr}
ARM GAS  C:\Users\phong\AppData\Local\Temp\ccw7LjCa.s 			page 8


 163              	.LCFI3:
 164              		.cfi_def_cfa_offset 8
 165              		.cfi_offset 3, -8
 166              		.cfi_offset 14, -4
 241:Core/Src/main.c ****   timerRun();
 167              		.loc 1 241 3 is_stmt 1 view .LVU38
 168 0002 FFF7FEFF 		bl	timerRun
 169              	.LVL5:
 242:Core/Src/main.c **** }
 170              		.loc 1 242 1 is_stmt 0 view .LVU39
 171 0006 08BD     		pop	{r3, pc}
 172              		.cfi_endproc
 173              	.LFE69:
 175              		.section	.text.Error_Handler,"ax",%progbits
 176              		.align	1
 177              		.global	Error_Handler
 178              		.syntax unified
 179              		.thumb
 180              		.thumb_func
 182              	Error_Handler:
 183              	.LFB70:
 243:Core/Src/main.c **** /* USER CODE END 4 */
 244:Core/Src/main.c **** 
 245:Core/Src/main.c **** /**
 246:Core/Src/main.c ****  * @brief  This function is executed in case of error occurrence.
 247:Core/Src/main.c ****  * @retval None
 248:Core/Src/main.c ****  */
 249:Core/Src/main.c **** void Error_Handler(void)
 250:Core/Src/main.c **** {
 184              		.loc 1 250 1 is_stmt 1 view -0
 185              		.cfi_startproc
 186              		@ Volatile: function does not return.
 187              		@ args = 0, pretend = 0, frame = 0
 188              		@ frame_needed = 0, uses_anonymous_args = 0
 189              		@ link register save eliminated.
 251:Core/Src/main.c ****   /* USER CODE BEGIN Error_Handler_Debug */
 252:Core/Src/main.c ****   /* User can add his own implementation to report the HAL error return state */
 253:Core/Src/main.c ****   __disable_irq();
 190              		.loc 1 253 3 view .LVU41
 191              	.LBB6:
 192              	.LBI6:
 193              		.file 2 "Drivers/CMSIS/Include/cmsis_gcc.h"
   1:Drivers/CMSIS/Include/cmsis_gcc.h **** /**************************************************************************//**
   2:Drivers/CMSIS/Include/cmsis_gcc.h ****  * @file     cmsis_gcc.h
   3:Drivers/CMSIS/Include/cmsis_gcc.h ****  * @brief    CMSIS compiler GCC header file
   4:Drivers/CMSIS/Include/cmsis_gcc.h ****  * @version  V5.0.4
   5:Drivers/CMSIS/Include/cmsis_gcc.h ****  * @date     09. April 2018
   6:Drivers/CMSIS/Include/cmsis_gcc.h ****  ******************************************************************************/
   7:Drivers/CMSIS/Include/cmsis_gcc.h **** /*
   8:Drivers/CMSIS/Include/cmsis_gcc.h ****  * Copyright (c) 2009-2018 Arm Limited. All rights reserved.
   9:Drivers/CMSIS/Include/cmsis_gcc.h ****  *
  10:Drivers/CMSIS/Include/cmsis_gcc.h ****  * SPDX-License-Identifier: Apache-2.0
  11:Drivers/CMSIS/Include/cmsis_gcc.h ****  *
  12:Drivers/CMSIS/Include/cmsis_gcc.h ****  * Licensed under the Apache License, Version 2.0 (the License); you may
  13:Drivers/CMSIS/Include/cmsis_gcc.h ****  * not use this file except in compliance with the License.
  14:Drivers/CMSIS/Include/cmsis_gcc.h ****  * You may obtain a copy of the License at
  15:Drivers/CMSIS/Include/cmsis_gcc.h ****  *
ARM GAS  C:\Users\phong\AppData\Local\Temp\ccw7LjCa.s 			page 9


  16:Drivers/CMSIS/Include/cmsis_gcc.h ****  * www.apache.org/licenses/LICENSE-2.0
  17:Drivers/CMSIS/Include/cmsis_gcc.h ****  *
  18:Drivers/CMSIS/Include/cmsis_gcc.h ****  * Unless required by applicable law or agreed to in writing, software
  19:Drivers/CMSIS/Include/cmsis_gcc.h ****  * distributed under the License is distributed on an AS IS BASIS, WITHOUT
  20:Drivers/CMSIS/Include/cmsis_gcc.h ****  * WARRANTIES OR CONDITIONS OF ANY KIND, either express or implied.
  21:Drivers/CMSIS/Include/cmsis_gcc.h ****  * See the License for the specific language governing permissions and
  22:Drivers/CMSIS/Include/cmsis_gcc.h ****  * limitations under the License.
  23:Drivers/CMSIS/Include/cmsis_gcc.h ****  */
  24:Drivers/CMSIS/Include/cmsis_gcc.h **** 
  25:Drivers/CMSIS/Include/cmsis_gcc.h **** #ifndef __CMSIS_GCC_H
  26:Drivers/CMSIS/Include/cmsis_gcc.h **** #define __CMSIS_GCC_H
  27:Drivers/CMSIS/Include/cmsis_gcc.h **** 
  28:Drivers/CMSIS/Include/cmsis_gcc.h **** /* ignore some GCC warnings */
  29:Drivers/CMSIS/Include/cmsis_gcc.h **** #pragma GCC diagnostic push
  30:Drivers/CMSIS/Include/cmsis_gcc.h **** #pragma GCC diagnostic ignored "-Wsign-conversion"
  31:Drivers/CMSIS/Include/cmsis_gcc.h **** #pragma GCC diagnostic ignored "-Wconversion"
  32:Drivers/CMSIS/Include/cmsis_gcc.h **** #pragma GCC diagnostic ignored "-Wunused-parameter"
  33:Drivers/CMSIS/Include/cmsis_gcc.h **** 
  34:Drivers/CMSIS/Include/cmsis_gcc.h **** /* Fallback for __has_builtin */
  35:Drivers/CMSIS/Include/cmsis_gcc.h **** #ifndef __has_builtin
  36:Drivers/CMSIS/Include/cmsis_gcc.h ****   #define __has_builtin(x) (0)
  37:Drivers/CMSIS/Include/cmsis_gcc.h **** #endif
  38:Drivers/CMSIS/Include/cmsis_gcc.h **** 
  39:Drivers/CMSIS/Include/cmsis_gcc.h **** /* CMSIS compiler specific defines */
  40:Drivers/CMSIS/Include/cmsis_gcc.h **** #ifndef   __ASM
  41:Drivers/CMSIS/Include/cmsis_gcc.h ****   #define __ASM                                  __asm
  42:Drivers/CMSIS/Include/cmsis_gcc.h **** #endif
  43:Drivers/CMSIS/Include/cmsis_gcc.h **** #ifndef   __INLINE
  44:Drivers/CMSIS/Include/cmsis_gcc.h ****   #define __INLINE                               inline
  45:Drivers/CMSIS/Include/cmsis_gcc.h **** #endif
  46:Drivers/CMSIS/Include/cmsis_gcc.h **** #ifndef   __STATIC_INLINE
  47:Drivers/CMSIS/Include/cmsis_gcc.h ****   #define __STATIC_INLINE                        static inline
  48:Drivers/CMSIS/Include/cmsis_gcc.h **** #endif
  49:Drivers/CMSIS/Include/cmsis_gcc.h **** #ifndef   __STATIC_FORCEINLINE                 
  50:Drivers/CMSIS/Include/cmsis_gcc.h ****   #define __STATIC_FORCEINLINE                   __attribute__((always_inline)) static inline
  51:Drivers/CMSIS/Include/cmsis_gcc.h **** #endif                                           
  52:Drivers/CMSIS/Include/cmsis_gcc.h **** #ifndef   __NO_RETURN
  53:Drivers/CMSIS/Include/cmsis_gcc.h ****   #define __NO_RETURN                            __attribute__((__noreturn__))
  54:Drivers/CMSIS/Include/cmsis_gcc.h **** #endif
  55:Drivers/CMSIS/Include/cmsis_gcc.h **** #ifndef   __USED
  56:Drivers/CMSIS/Include/cmsis_gcc.h ****   #define __USED                                 __attribute__((used))
  57:Drivers/CMSIS/Include/cmsis_gcc.h **** #endif
  58:Drivers/CMSIS/Include/cmsis_gcc.h **** #ifndef   __WEAK
  59:Drivers/CMSIS/Include/cmsis_gcc.h ****   #define __WEAK                                 __attribute__((weak))
  60:Drivers/CMSIS/Include/cmsis_gcc.h **** #endif
  61:Drivers/CMSIS/Include/cmsis_gcc.h **** #ifndef   __PACKED
  62:Drivers/CMSIS/Include/cmsis_gcc.h ****   #define __PACKED                               __attribute__((packed, aligned(1)))
  63:Drivers/CMSIS/Include/cmsis_gcc.h **** #endif
  64:Drivers/CMSIS/Include/cmsis_gcc.h **** #ifndef   __PACKED_STRUCT
  65:Drivers/CMSIS/Include/cmsis_gcc.h ****   #define __PACKED_STRUCT                        struct __attribute__((packed, aligned(1)))
  66:Drivers/CMSIS/Include/cmsis_gcc.h **** #endif
  67:Drivers/CMSIS/Include/cmsis_gcc.h **** #ifndef   __PACKED_UNION
  68:Drivers/CMSIS/Include/cmsis_gcc.h ****   #define __PACKED_UNION                         union __attribute__((packed, aligned(1)))
  69:Drivers/CMSIS/Include/cmsis_gcc.h **** #endif
  70:Drivers/CMSIS/Include/cmsis_gcc.h **** #ifndef   __UNALIGNED_UINT32        /* deprecated */
  71:Drivers/CMSIS/Include/cmsis_gcc.h ****   #pragma GCC diagnostic push
  72:Drivers/CMSIS/Include/cmsis_gcc.h ****   #pragma GCC diagnostic ignored "-Wpacked"
ARM GAS  C:\Users\phong\AppData\Local\Temp\ccw7LjCa.s 			page 10


  73:Drivers/CMSIS/Include/cmsis_gcc.h ****   #pragma GCC diagnostic ignored "-Wattributes"
  74:Drivers/CMSIS/Include/cmsis_gcc.h ****   struct __attribute__((packed)) T_UINT32 { uint32_t v; };
  75:Drivers/CMSIS/Include/cmsis_gcc.h ****   #pragma GCC diagnostic pop
  76:Drivers/CMSIS/Include/cmsis_gcc.h ****   #define __UNALIGNED_UINT32(x)                  (((struct T_UINT32 *)(x))->v)
  77:Drivers/CMSIS/Include/cmsis_gcc.h **** #endif
  78:Drivers/CMSIS/Include/cmsis_gcc.h **** #ifndef   __UNALIGNED_UINT16_WRITE
  79:Drivers/CMSIS/Include/cmsis_gcc.h ****   #pragma GCC diagnostic push
  80:Drivers/CMSIS/Include/cmsis_gcc.h ****   #pragma GCC diagnostic ignored "-Wpacked"
  81:Drivers/CMSIS/Include/cmsis_gcc.h ****   #pragma GCC diagnostic ignored "-Wattributes"
  82:Drivers/CMSIS/Include/cmsis_gcc.h ****   __PACKED_STRUCT T_UINT16_WRITE { uint16_t v; };
  83:Drivers/CMSIS/Include/cmsis_gcc.h ****   #pragma GCC diagnostic pop
  84:Drivers/CMSIS/Include/cmsis_gcc.h ****   #define __UNALIGNED_UINT16_WRITE(addr, val)    (void)((((struct T_UINT16_WRITE *)(void *)(addr))-
  85:Drivers/CMSIS/Include/cmsis_gcc.h **** #endif
  86:Drivers/CMSIS/Include/cmsis_gcc.h **** #ifndef   __UNALIGNED_UINT16_READ
  87:Drivers/CMSIS/Include/cmsis_gcc.h ****   #pragma GCC diagnostic push
  88:Drivers/CMSIS/Include/cmsis_gcc.h ****   #pragma GCC diagnostic ignored "-Wpacked"
  89:Drivers/CMSIS/Include/cmsis_gcc.h ****   #pragma GCC diagnostic ignored "-Wattributes"
  90:Drivers/CMSIS/Include/cmsis_gcc.h ****   __PACKED_STRUCT T_UINT16_READ { uint16_t v; };
  91:Drivers/CMSIS/Include/cmsis_gcc.h ****   #pragma GCC diagnostic pop
  92:Drivers/CMSIS/Include/cmsis_gcc.h ****   #define __UNALIGNED_UINT16_READ(addr)          (((const struct T_UINT16_READ *)(const void *)(add
  93:Drivers/CMSIS/Include/cmsis_gcc.h **** #endif
  94:Drivers/CMSIS/Include/cmsis_gcc.h **** #ifndef   __UNALIGNED_UINT32_WRITE
  95:Drivers/CMSIS/Include/cmsis_gcc.h ****   #pragma GCC diagnostic push
  96:Drivers/CMSIS/Include/cmsis_gcc.h ****   #pragma GCC diagnostic ignored "-Wpacked"
  97:Drivers/CMSIS/Include/cmsis_gcc.h ****   #pragma GCC diagnostic ignored "-Wattributes"
  98:Drivers/CMSIS/Include/cmsis_gcc.h ****   __PACKED_STRUCT T_UINT32_WRITE { uint32_t v; };
  99:Drivers/CMSIS/Include/cmsis_gcc.h ****   #pragma GCC diagnostic pop
 100:Drivers/CMSIS/Include/cmsis_gcc.h ****   #define __UNALIGNED_UINT32_WRITE(addr, val)    (void)((((struct T_UINT32_WRITE *)(void *)(addr))-
 101:Drivers/CMSIS/Include/cmsis_gcc.h **** #endif
 102:Drivers/CMSIS/Include/cmsis_gcc.h **** #ifndef   __UNALIGNED_UINT32_READ
 103:Drivers/CMSIS/Include/cmsis_gcc.h ****   #pragma GCC diagnostic push
 104:Drivers/CMSIS/Include/cmsis_gcc.h ****   #pragma GCC diagnostic ignored "-Wpacked"
 105:Drivers/CMSIS/Include/cmsis_gcc.h ****   #pragma GCC diagnostic ignored "-Wattributes"
 106:Drivers/CMSIS/Include/cmsis_gcc.h ****   __PACKED_STRUCT T_UINT32_READ { uint32_t v; };
 107:Drivers/CMSIS/Include/cmsis_gcc.h ****   #pragma GCC diagnostic pop
 108:Drivers/CMSIS/Include/cmsis_gcc.h ****   #define __UNALIGNED_UINT32_READ(addr)          (((const struct T_UINT32_READ *)(const void *)(add
 109:Drivers/CMSIS/Include/cmsis_gcc.h **** #endif
 110:Drivers/CMSIS/Include/cmsis_gcc.h **** #ifndef   __ALIGNED
 111:Drivers/CMSIS/Include/cmsis_gcc.h ****   #define __ALIGNED(x)                           __attribute__((aligned(x)))
 112:Drivers/CMSIS/Include/cmsis_gcc.h **** #endif
 113:Drivers/CMSIS/Include/cmsis_gcc.h **** #ifndef   __RESTRICT
 114:Drivers/CMSIS/Include/cmsis_gcc.h ****   #define __RESTRICT                             __restrict
 115:Drivers/CMSIS/Include/cmsis_gcc.h **** #endif
 116:Drivers/CMSIS/Include/cmsis_gcc.h **** 
 117:Drivers/CMSIS/Include/cmsis_gcc.h **** 
 118:Drivers/CMSIS/Include/cmsis_gcc.h **** /* ###########################  Core Function Access  ########################### */
 119:Drivers/CMSIS/Include/cmsis_gcc.h **** /** \ingroup  CMSIS_Core_FunctionInterface
 120:Drivers/CMSIS/Include/cmsis_gcc.h ****     \defgroup CMSIS_Core_RegAccFunctions CMSIS Core Register Access Functions
 121:Drivers/CMSIS/Include/cmsis_gcc.h ****   @{
 122:Drivers/CMSIS/Include/cmsis_gcc.h ****  */
 123:Drivers/CMSIS/Include/cmsis_gcc.h **** 
 124:Drivers/CMSIS/Include/cmsis_gcc.h **** /**
 125:Drivers/CMSIS/Include/cmsis_gcc.h ****   \brief   Enable IRQ Interrupts
 126:Drivers/CMSIS/Include/cmsis_gcc.h ****   \details Enables IRQ interrupts by clearing the I-bit in the CPSR.
 127:Drivers/CMSIS/Include/cmsis_gcc.h ****            Can only be executed in Privileged modes.
 128:Drivers/CMSIS/Include/cmsis_gcc.h ****  */
 129:Drivers/CMSIS/Include/cmsis_gcc.h **** __STATIC_FORCEINLINE void __enable_irq(void)
ARM GAS  C:\Users\phong\AppData\Local\Temp\ccw7LjCa.s 			page 11


 130:Drivers/CMSIS/Include/cmsis_gcc.h **** {
 131:Drivers/CMSIS/Include/cmsis_gcc.h ****   __ASM volatile ("cpsie i" : : : "memory");
 132:Drivers/CMSIS/Include/cmsis_gcc.h **** }
 133:Drivers/CMSIS/Include/cmsis_gcc.h **** 
 134:Drivers/CMSIS/Include/cmsis_gcc.h **** 
 135:Drivers/CMSIS/Include/cmsis_gcc.h **** /**
 136:Drivers/CMSIS/Include/cmsis_gcc.h ****   \brief   Disable IRQ Interrupts
 137:Drivers/CMSIS/Include/cmsis_gcc.h ****   \details Disables IRQ interrupts by setting the I-bit in the CPSR.
 138:Drivers/CMSIS/Include/cmsis_gcc.h ****            Can only be executed in Privileged modes.
 139:Drivers/CMSIS/Include/cmsis_gcc.h ****  */
 140:Drivers/CMSIS/Include/cmsis_gcc.h **** __STATIC_FORCEINLINE void __disable_irq(void)
 194              		.loc 2 140 27 view .LVU42
 195              	.LBB7:
 141:Drivers/CMSIS/Include/cmsis_gcc.h **** {
 142:Drivers/CMSIS/Include/cmsis_gcc.h ****   __ASM volatile ("cpsid i" : : : "memory");
 196              		.loc 2 142 3 view .LVU43
 197              		.syntax unified
 198              	@ 142 "Drivers/CMSIS/Include/cmsis_gcc.h" 1
 199 0000 72B6     		cpsid i
 200              	@ 0 "" 2
 201              		.thumb
 202              		.syntax unified
 203              	.L8:
 204              	.LBE7:
 205              	.LBE6:
 254:Core/Src/main.c ****   while (1)
 206              		.loc 1 254 3 discriminator 1 view .LVU44
 255:Core/Src/main.c ****   {
 256:Core/Src/main.c ****   }
 207              		.loc 1 256 3 discriminator 1 view .LVU45
 254:Core/Src/main.c ****   while (1)
 208              		.loc 1 254 9 discriminator 1 view .LVU46
 209 0002 FEE7     		b	.L8
 210              		.cfi_endproc
 211              	.LFE70:
 213              		.section	.text.MX_TIM2_Init,"ax",%progbits
 214              		.align	1
 215              		.syntax unified
 216              		.thumb
 217              		.thumb_func
 219              	MX_TIM2_Init:
 220              	.LFB67:
 160:Core/Src/main.c **** 
 221              		.loc 1 160 1 view -0
 222              		.cfi_startproc
 223              		@ args = 0, pretend = 0, frame = 24
 224              		@ frame_needed = 0, uses_anonymous_args = 0
 225 0000 00B5     		push	{lr}
 226              	.LCFI4:
 227              		.cfi_def_cfa_offset 4
 228              		.cfi_offset 14, -4
 229 0002 87B0     		sub	sp, sp, #28
 230              	.LCFI5:
 231              		.cfi_def_cfa_offset 32
 166:Core/Src/main.c ****   TIM_MasterConfigTypeDef sMasterConfig = {0};
 232              		.loc 1 166 3 view .LVU48
 166:Core/Src/main.c ****   TIM_MasterConfigTypeDef sMasterConfig = {0};
ARM GAS  C:\Users\phong\AppData\Local\Temp\ccw7LjCa.s 			page 12


 233              		.loc 1 166 26 is_stmt 0 view .LVU49
 234 0004 0023     		movs	r3, #0
 235 0006 0293     		str	r3, [sp, #8]
 236 0008 0393     		str	r3, [sp, #12]
 237 000a 0493     		str	r3, [sp, #16]
 238 000c 0593     		str	r3, [sp, #20]
 167:Core/Src/main.c **** 
 239              		.loc 1 167 3 is_stmt 1 view .LVU50
 167:Core/Src/main.c **** 
 240              		.loc 1 167 27 is_stmt 0 view .LVU51
 241 000e 0093     		str	r3, [sp]
 242 0010 0193     		str	r3, [sp, #4]
 172:Core/Src/main.c ****   htim2.Init.Prescaler = 7999;
 243              		.loc 1 172 3 is_stmt 1 view .LVU52
 172:Core/Src/main.c ****   htim2.Init.Prescaler = 7999;
 244              		.loc 1 172 18 is_stmt 0 view .LVU53
 245 0012 1448     		ldr	r0, .L17
 246 0014 4FF08042 		mov	r2, #1073741824
 247 0018 0260     		str	r2, [r0]
 173:Core/Src/main.c ****   htim2.Init.CounterMode = TIM_COUNTERMODE_UP;
 248              		.loc 1 173 3 is_stmt 1 view .LVU54
 173:Core/Src/main.c ****   htim2.Init.CounterMode = TIM_COUNTERMODE_UP;
 249              		.loc 1 173 24 is_stmt 0 view .LVU55
 250 001a 41F63F72 		movw	r2, #7999
 251 001e 4260     		str	r2, [r0, #4]
 174:Core/Src/main.c ****   htim2.Init.Period = 9;
 252              		.loc 1 174 3 is_stmt 1 view .LVU56
 174:Core/Src/main.c ****   htim2.Init.Period = 9;
 253              		.loc 1 174 26 is_stmt 0 view .LVU57
 254 0020 8360     		str	r3, [r0, #8]
 175:Core/Src/main.c ****   htim2.Init.ClockDivision = TIM_CLOCKDIVISION_DIV1;
 255              		.loc 1 175 3 is_stmt 1 view .LVU58
 175:Core/Src/main.c ****   htim2.Init.ClockDivision = TIM_CLOCKDIVISION_DIV1;
 256              		.loc 1 175 21 is_stmt 0 view .LVU59
 257 0022 0922     		movs	r2, #9
 258 0024 C260     		str	r2, [r0, #12]
 176:Core/Src/main.c ****   htim2.Init.AutoReloadPreload = TIM_AUTORELOAD_PRELOAD_DISABLE;
 259              		.loc 1 176 3 is_stmt 1 view .LVU60
 176:Core/Src/main.c ****   htim2.Init.AutoReloadPreload = TIM_AUTORELOAD_PRELOAD_DISABLE;
 260              		.loc 1 176 28 is_stmt 0 view .LVU61
 261 0026 0361     		str	r3, [r0, #16]
 177:Core/Src/main.c ****   if (HAL_TIM_Base_Init(&htim2) != HAL_OK)
 262              		.loc 1 177 3 is_stmt 1 view .LVU62
 177:Core/Src/main.c ****   if (HAL_TIM_Base_Init(&htim2) != HAL_OK)
 263              		.loc 1 177 32 is_stmt 0 view .LVU63
 264 0028 8361     		str	r3, [r0, #24]
 178:Core/Src/main.c ****   {
 265              		.loc 1 178 3 is_stmt 1 view .LVU64
 178:Core/Src/main.c ****   {
 266              		.loc 1 178 7 is_stmt 0 view .LVU65
 267 002a FFF7FEFF 		bl	HAL_TIM_Base_Init
 268              	.LVL6:
 178:Core/Src/main.c ****   {
 269              		.loc 1 178 6 view .LVU66
 270 002e 90B9     		cbnz	r0, .L14
 182:Core/Src/main.c ****   if (HAL_TIM_ConfigClockSource(&htim2, &sClockSourceConfig) != HAL_OK)
 271              		.loc 1 182 3 is_stmt 1 view .LVU67
ARM GAS  C:\Users\phong\AppData\Local\Temp\ccw7LjCa.s 			page 13


 182:Core/Src/main.c ****   if (HAL_TIM_ConfigClockSource(&htim2, &sClockSourceConfig) != HAL_OK)
 272              		.loc 1 182 34 is_stmt 0 view .LVU68
 273 0030 4FF48053 		mov	r3, #4096
 274 0034 0293     		str	r3, [sp, #8]
 183:Core/Src/main.c ****   {
 275              		.loc 1 183 3 is_stmt 1 view .LVU69
 183:Core/Src/main.c ****   {
 276              		.loc 1 183 7 is_stmt 0 view .LVU70
 277 0036 02A9     		add	r1, sp, #8
 278 0038 0A48     		ldr	r0, .L17
 279 003a FFF7FEFF 		bl	HAL_TIM_ConfigClockSource
 280              	.LVL7:
 183:Core/Src/main.c ****   {
 281              		.loc 1 183 6 view .LVU71
 282 003e 60B9     		cbnz	r0, .L15
 187:Core/Src/main.c ****   sMasterConfig.MasterSlaveMode = TIM_MASTERSLAVEMODE_DISABLE;
 283              		.loc 1 187 3 is_stmt 1 view .LVU72
 187:Core/Src/main.c ****   sMasterConfig.MasterSlaveMode = TIM_MASTERSLAVEMODE_DISABLE;
 284              		.loc 1 187 37 is_stmt 0 view .LVU73
 285 0040 0023     		movs	r3, #0
 286 0042 0093     		str	r3, [sp]
 188:Core/Src/main.c ****   if (HAL_TIMEx_MasterConfigSynchronization(&htim2, &sMasterConfig) != HAL_OK)
 287              		.loc 1 188 3 is_stmt 1 view .LVU74
 188:Core/Src/main.c ****   if (HAL_TIMEx_MasterConfigSynchronization(&htim2, &sMasterConfig) != HAL_OK)
 288              		.loc 1 188 33 is_stmt 0 view .LVU75
 289 0044 0193     		str	r3, [sp, #4]
 189:Core/Src/main.c ****   {
 290              		.loc 1 189 3 is_stmt 1 view .LVU76
 189:Core/Src/main.c ****   {
 291              		.loc 1 189 7 is_stmt 0 view .LVU77
 292 0046 6946     		mov	r1, sp
 293 0048 0648     		ldr	r0, .L17
 294 004a FFF7FEFF 		bl	HAL_TIMEx_MasterConfigSynchronization
 295              	.LVL8:
 189:Core/Src/main.c ****   {
 296              		.loc 1 189 6 view .LVU78
 297 004e 30B9     		cbnz	r0, .L16
 196:Core/Src/main.c **** 
 298              		.loc 1 196 1 view .LVU79
 299 0050 07B0     		add	sp, sp, #28
 300              	.LCFI6:
 301              		.cfi_remember_state
 302              		.cfi_def_cfa_offset 4
 303              		@ sp needed
 304 0052 5DF804FB 		ldr	pc, [sp], #4
 305              	.L14:
 306              	.LCFI7:
 307              		.cfi_restore_state
 180:Core/Src/main.c ****   }
 308              		.loc 1 180 5 is_stmt 1 view .LVU80
 309 0056 FFF7FEFF 		bl	Error_Handler
 310              	.LVL9:
 311              	.L15:
 185:Core/Src/main.c ****   }
 312              		.loc 1 185 5 view .LVU81
 313 005a FFF7FEFF 		bl	Error_Handler
 314              	.LVL10:
ARM GAS  C:\Users\phong\AppData\Local\Temp\ccw7LjCa.s 			page 14


 315              	.L16:
 191:Core/Src/main.c ****   }
 316              		.loc 1 191 5 view .LVU82
 317 005e FFF7FEFF 		bl	Error_Handler
 318              	.LVL11:
 319              	.L18:
 320 0062 00BF     		.align	2
 321              	.L17:
 322 0064 00000000 		.word	htim2
 323              		.cfi_endproc
 324              	.LFE67:
 326              		.section	.text.SystemClock_Config,"ax",%progbits
 327              		.align	1
 328              		.global	SystemClock_Config
 329              		.syntax unified
 330              		.thumb
 331              		.thumb_func
 333              	SystemClock_Config:
 334              	.LFB66:
 124:Core/Src/main.c ****   RCC_OscInitTypeDef RCC_OscInitStruct = {0};
 335              		.loc 1 124 1 view -0
 336              		.cfi_startproc
 337              		@ args = 0, pretend = 0, frame = 64
 338              		@ frame_needed = 0, uses_anonymous_args = 0
 339 0000 00B5     		push	{lr}
 340              	.LCFI8:
 341              		.cfi_def_cfa_offset 4
 342              		.cfi_offset 14, -4
 343 0002 91B0     		sub	sp, sp, #68
 344              	.LCFI9:
 345              		.cfi_def_cfa_offset 72
 125:Core/Src/main.c ****   RCC_ClkInitTypeDef RCC_ClkInitStruct = {0};
 346              		.loc 1 125 3 view .LVU84
 125:Core/Src/main.c ****   RCC_ClkInitTypeDef RCC_ClkInitStruct = {0};
 347              		.loc 1 125 22 is_stmt 0 view .LVU85
 348 0004 2822     		movs	r2, #40
 349 0006 0021     		movs	r1, #0
 350 0008 06A8     		add	r0, sp, #24
 351 000a FFF7FEFF 		bl	memset
 352              	.LVL12:
 126:Core/Src/main.c **** 
 353              		.loc 1 126 3 is_stmt 1 view .LVU86
 126:Core/Src/main.c **** 
 354              		.loc 1 126 22 is_stmt 0 view .LVU87
 355 000e 0023     		movs	r3, #0
 356 0010 0193     		str	r3, [sp, #4]
 357 0012 0293     		str	r3, [sp, #8]
 358 0014 0393     		str	r3, [sp, #12]
 359 0016 0493     		str	r3, [sp, #16]
 360 0018 0593     		str	r3, [sp, #20]
 131:Core/Src/main.c ****   RCC_OscInitStruct.HSIState = RCC_HSI_ON;
 361              		.loc 1 131 3 is_stmt 1 view .LVU88
 131:Core/Src/main.c ****   RCC_OscInitStruct.HSIState = RCC_HSI_ON;
 362              		.loc 1 131 36 is_stmt 0 view .LVU89
 363 001a 0223     		movs	r3, #2
 364 001c 0693     		str	r3, [sp, #24]
 132:Core/Src/main.c ****   RCC_OscInitStruct.HSICalibrationValue = RCC_HSICALIBRATION_DEFAULT;
ARM GAS  C:\Users\phong\AppData\Local\Temp\ccw7LjCa.s 			page 15


 365              		.loc 1 132 3 is_stmt 1 view .LVU90
 132:Core/Src/main.c ****   RCC_OscInitStruct.HSICalibrationValue = RCC_HSICALIBRATION_DEFAULT;
 366              		.loc 1 132 30 is_stmt 0 view .LVU91
 367 001e 0123     		movs	r3, #1
 368 0020 0A93     		str	r3, [sp, #40]
 133:Core/Src/main.c ****   RCC_OscInitStruct.PLL.PLLState = RCC_PLL_NONE;
 369              		.loc 1 133 3 is_stmt 1 view .LVU92
 133:Core/Src/main.c ****   RCC_OscInitStruct.PLL.PLLState = RCC_PLL_NONE;
 370              		.loc 1 133 41 is_stmt 0 view .LVU93
 371 0022 1023     		movs	r3, #16
 372 0024 0B93     		str	r3, [sp, #44]
 134:Core/Src/main.c ****   if (HAL_RCC_OscConfig(&RCC_OscInitStruct) != HAL_OK)
 373              		.loc 1 134 3 is_stmt 1 view .LVU94
 135:Core/Src/main.c ****   {
 374              		.loc 1 135 3 view .LVU95
 135:Core/Src/main.c ****   {
 375              		.loc 1 135 7 is_stmt 0 view .LVU96
 376 0026 06A8     		add	r0, sp, #24
 377 0028 FFF7FEFF 		bl	HAL_RCC_OscConfig
 378              	.LVL13:
 135:Core/Src/main.c ****   {
 379              		.loc 1 135 6 view .LVU97
 380 002c 68B9     		cbnz	r0, .L23
 142:Core/Src/main.c ****   RCC_ClkInitStruct.SYSCLKSource = RCC_SYSCLKSOURCE_HSI;
 381              		.loc 1 142 3 is_stmt 1 view .LVU98
 142:Core/Src/main.c ****   RCC_ClkInitStruct.SYSCLKSource = RCC_SYSCLKSOURCE_HSI;
 382              		.loc 1 142 31 is_stmt 0 view .LVU99
 383 002e 0F23     		movs	r3, #15
 384 0030 0193     		str	r3, [sp, #4]
 143:Core/Src/main.c ****   RCC_ClkInitStruct.AHBCLKDivider = RCC_SYSCLK_DIV1;
 385              		.loc 1 143 3 is_stmt 1 view .LVU100
 143:Core/Src/main.c ****   RCC_ClkInitStruct.AHBCLKDivider = RCC_SYSCLK_DIV1;
 386              		.loc 1 143 34 is_stmt 0 view .LVU101
 387 0032 0021     		movs	r1, #0
 388 0034 0291     		str	r1, [sp, #8]
 144:Core/Src/main.c ****   RCC_ClkInitStruct.APB1CLKDivider = RCC_HCLK_DIV1;
 389              		.loc 1 144 3 is_stmt 1 view .LVU102
 144:Core/Src/main.c ****   RCC_ClkInitStruct.APB1CLKDivider = RCC_HCLK_DIV1;
 390              		.loc 1 144 35 is_stmt 0 view .LVU103
 391 0036 0391     		str	r1, [sp, #12]
 145:Core/Src/main.c ****   RCC_ClkInitStruct.APB2CLKDivider = RCC_HCLK_DIV1;
 392              		.loc 1 145 3 is_stmt 1 view .LVU104
 145:Core/Src/main.c ****   RCC_ClkInitStruct.APB2CLKDivider = RCC_HCLK_DIV1;
 393              		.loc 1 145 36 is_stmt 0 view .LVU105
 394 0038 0491     		str	r1, [sp, #16]
 146:Core/Src/main.c **** 
 395              		.loc 1 146 3 is_stmt 1 view .LVU106
 146:Core/Src/main.c **** 
 396              		.loc 1 146 36 is_stmt 0 view .LVU107
 397 003a 0591     		str	r1, [sp, #20]
 148:Core/Src/main.c ****   {
 398              		.loc 1 148 3 is_stmt 1 view .LVU108
 148:Core/Src/main.c ****   {
 399              		.loc 1 148 7 is_stmt 0 view .LVU109
 400 003c 01A8     		add	r0, sp, #4
 401 003e FFF7FEFF 		bl	HAL_RCC_ClockConfig
 402              	.LVL14:
ARM GAS  C:\Users\phong\AppData\Local\Temp\ccw7LjCa.s 			page 16


 148:Core/Src/main.c ****   {
 403              		.loc 1 148 6 view .LVU110
 404 0042 20B9     		cbnz	r0, .L24
 152:Core/Src/main.c **** 
 405              		.loc 1 152 1 view .LVU111
 406 0044 11B0     		add	sp, sp, #68
 407              	.LCFI10:
 408              		.cfi_remember_state
 409              		.cfi_def_cfa_offset 4
 410              		@ sp needed
 411 0046 5DF804FB 		ldr	pc, [sp], #4
 412              	.L23:
 413              	.LCFI11:
 414              		.cfi_restore_state
 137:Core/Src/main.c ****   }
 415              		.loc 1 137 5 is_stmt 1 view .LVU112
 416 004a FFF7FEFF 		bl	Error_Handler
 417              	.LVL15:
 418              	.L24:
 150:Core/Src/main.c ****   }
 419              		.loc 1 150 5 view .LVU113
 420 004e FFF7FEFF 		bl	Error_Handler
 421              	.LVL16:
 422              		.cfi_endproc
 423              	.LFE66:
 425              		.section	.text.main,"ax",%progbits
 426              		.align	1
 427              		.global	main
 428              		.syntax unified
 429              		.thumb
 430              		.thumb_func
 432              	main:
 433              	.LFB65:
  67:Core/Src/main.c ****   /* USER CODE BEGIN 1 */
 434              		.loc 1 67 1 view -0
 435              		.cfi_startproc
 436              		@ args = 0, pretend = 0, frame = 0
 437              		@ frame_needed = 0, uses_anonymous_args = 0
 438 0000 38B5     		push	{r3, r4, r5, lr}
 439              	.LCFI12:
 440              		.cfi_def_cfa_offset 16
 441              		.cfi_offset 3, -16
 442              		.cfi_offset 4, -12
 443              		.cfi_offset 5, -8
 444              		.cfi_offset 14, -4
  75:Core/Src/main.c **** 
 445              		.loc 1 75 3 view .LVU115
 446 0002 FFF7FEFF 		bl	HAL_Init
 447              	.LVL17:
  82:Core/Src/main.c **** 
 448              		.loc 1 82 3 view .LVU116
 449 0006 FFF7FEFF 		bl	SystemClock_Config
 450              	.LVL18:
  89:Core/Src/main.c ****   MX_TIM2_Init();
 451              		.loc 1 89 3 view .LVU117
 452 000a FFF7FEFF 		bl	MX_GPIO_Init
 453              	.LVL19:
ARM GAS  C:\Users\phong\AppData\Local\Temp\ccw7LjCa.s 			page 17


  90:Core/Src/main.c ****   /* USER CODE BEGIN 2 */
 454              		.loc 1 90 3 view .LVU118
 455 000e FFF7FEFF 		bl	MX_TIM2_Init
 456              	.LVL20:
  92:Core/Src/main.c ****   setTimer1(50);
 457              		.loc 1 92 3 view .LVU119
 458 0012 1848     		ldr	r0, .L29
 459 0014 FFF7FEFF 		bl	HAL_TIM_Base_Start_IT
 460              	.LVL21:
  93:Core/Src/main.c ****   clearDisplay7Seg();
 461              		.loc 1 93 3 view .LVU120
 462 0018 3220     		movs	r0, #50
 463 001a FFF7FEFF 		bl	setTimer1
 464              	.LVL22:
  94:Core/Src/main.c ****   int num = 0;
 465              		.loc 1 94 3 view .LVU121
 466 001e FFF7FEFF 		bl	clearDisplay7Seg
 467              	.LVL23:
  95:Core/Src/main.c ****   HAL_GPIO_WritePin(EN0_GPIO_Port, EN0_Pin, 0);
 468              		.loc 1 95 3 view .LVU122
  96:Core/Src/main.c ****   HAL_GPIO_WritePin(EN1_GPIO_Port, EN1_Pin, 1);
 469              		.loc 1 96 3 view .LVU123
 470 0022 154C     		ldr	r4, .L29+4
 471 0024 0022     		movs	r2, #0
 472 0026 4021     		movs	r1, #64
 473 0028 2046     		mov	r0, r4
 474 002a FFF7FEFF 		bl	HAL_GPIO_WritePin
 475              	.LVL24:
  97:Core/Src/main.c ****   /* USER CODE END 2 */
 476              		.loc 1 97 3 view .LVU124
 477 002e 0122     		movs	r2, #1
 478 0030 8021     		movs	r1, #128
 479 0032 2046     		mov	r0, r4
 480 0034 FFF7FEFF 		bl	HAL_GPIO_WritePin
 481              	.LVL25:
  95:Core/Src/main.c ****   HAL_GPIO_WritePin(EN0_GPIO_Port, EN0_Pin, 0);
 482              		.loc 1 95 7 is_stmt 0 view .LVU125
 483 0038 0024     		movs	r4, #0
 484              	.LVL26:
 485              	.L26:
 102:Core/Src/main.c ****   {
 486              		.loc 1 102 3 is_stmt 1 view .LVU126
 104:Core/Src/main.c ****     {
 487              		.loc 1 104 5 view .LVU127
 104:Core/Src/main.c ****     {
 488              		.loc 1 104 21 is_stmt 0 view .LVU128
 489 003a 104B     		ldr	r3, .L29+8
 490 003c 1B68     		ldr	r3, [r3]
 104:Core/Src/main.c ****     {
 491              		.loc 1 104 8 view .LVU129
 492 003e 012B     		cmp	r3, #1
 493 0040 FBD1     		bne	.L26
 106:Core/Src/main.c ****       num++;
 494              		.loc 1 106 7 is_stmt 1 view .LVU130
 495 0042 0F4B     		ldr	r3, .L29+12
 496 0044 83FB0423 		smull	r2, r3, r3, r4
 497 0048 E017     		asrs	r0, r4, #31
ARM GAS  C:\Users\phong\AppData\Local\Temp\ccw7LjCa.s 			page 18


 498 004a C0EB6300 		rsb	r0, r0, r3, asr #1
 499 004e 00EBC000 		add	r0, r0, r0, lsl #3
 500 0052 201A     		subs	r0, r4, r0
 501 0054 FFF7FEFF 		bl	display7Seg
 502              	.LVL27:
 107:Core/Src/main.c ****       HAL_GPIO_TogglePin(EN0_GPIO_Port, EN0_Pin);
 503              		.loc 1 107 7 view .LVU131
 107:Core/Src/main.c ****       HAL_GPIO_TogglePin(EN0_GPIO_Port, EN0_Pin);
 504              		.loc 1 107 10 is_stmt 0 view .LVU132
 505 0058 0134     		adds	r4, r4, #1
 506              	.LVL28:
 108:Core/Src/main.c ****       HAL_GPIO_TogglePin(EN1_GPIO_Port, EN1_Pin);
 507              		.loc 1 108 7 is_stmt 1 view .LVU133
 508 005a 074D     		ldr	r5, .L29+4
 509 005c 4021     		movs	r1, #64
 510 005e 2846     		mov	r0, r5
 511 0060 FFF7FEFF 		bl	HAL_GPIO_TogglePin
 512              	.LVL29:
 109:Core/Src/main.c ****       setTimer1(50);
 513              		.loc 1 109 7 view .LVU134
 514 0064 8021     		movs	r1, #128
 515 0066 2846     		mov	r0, r5
 516 0068 FFF7FEFF 		bl	HAL_GPIO_TogglePin
 517              	.LVL30:
 110:Core/Src/main.c ****     }
 518              		.loc 1 110 7 view .LVU135
 519 006c 3220     		movs	r0, #50
 520 006e FFF7FEFF 		bl	setTimer1
 521              	.LVL31:
 522 0072 E2E7     		b	.L26
 523              	.L30:
 524              		.align	2
 525              	.L29:
 526 0074 00000000 		.word	htim2
 527 0078 00080140 		.word	1073809408
 528 007c 00000000 		.word	timer1_flag
 529 0080 398EE338 		.word	954437177
 530              		.cfi_endproc
 531              	.LFE65:
 533              		.global	htim2
 534              		.section	.bss.htim2,"aw",%nobits
 535              		.align	2
 538              	htim2:
 539 0000 00000000 		.space	72
 539      00000000 
 539      00000000 
 539      00000000 
 539      00000000 
 540              		.text
 541              	.Letext0:
 542              		.file 3 "d:\\armgnu\\12.3 rel1\\arm-none-eabi\\include\\machine\\_default_types.h"
 543              		.file 4 "d:\\armgnu\\12.3 rel1\\arm-none-eabi\\include\\sys\\_stdint.h"
 544              		.file 5 "Drivers/CMSIS/Device/ST/STM32F1xx/Include/stm32f103x6.h"
 545              		.file 6 "Drivers/STM32F1xx_HAL_Driver/Inc/stm32f1xx_hal_def.h"
 546              		.file 7 "Drivers/STM32F1xx_HAL_Driver/Inc/stm32f1xx_hal_rcc.h"
 547              		.file 8 "Drivers/STM32F1xx_HAL_Driver/Inc/stm32f1xx_hal_rcc_ex.h"
 548              		.file 9 "Drivers/STM32F1xx_HAL_Driver/Inc/stm32f1xx_hal_gpio.h"
ARM GAS  C:\Users\phong\AppData\Local\Temp\ccw7LjCa.s 			page 19


 549              		.file 10 "Drivers/STM32F1xx_HAL_Driver/Inc/stm32f1xx_hal_dma.h"
 550              		.file 11 "Drivers/STM32F1xx_HAL_Driver/Inc/stm32f1xx_hal_tim.h"
 551              		.file 12 "Core/Inc/software_timer.h"
 552              		.file 13 "Drivers/STM32F1xx_HAL_Driver/Inc/stm32f1xx_hal_tim_ex.h"
 553              		.file 14 "Core/Inc/7segmentLED.h"
 554              		.file 15 "Drivers/STM32F1xx_HAL_Driver/Inc/stm32f1xx_hal.h"
 555              		.file 16 "<built-in>"
ARM GAS  C:\Users\phong\AppData\Local\Temp\ccw7LjCa.s 			page 20


DEFINED SYMBOLS
                            *ABS*:00000000 main.c
C:\Users\phong\AppData\Local\Temp\ccw7LjCa.s:19     .text.MX_GPIO_Init:00000000 $t
C:\Users\phong\AppData\Local\Temp\ccw7LjCa.s:24     .text.MX_GPIO_Init:00000000 MX_GPIO_Init
C:\Users\phong\AppData\Local\Temp\ccw7LjCa.s:141    .text.MX_GPIO_Init:00000080 $d
C:\Users\phong\AppData\Local\Temp\ccw7LjCa.s:148    .text.HAL_TIM_PeriodElapsedCallback:00000000 $t
C:\Users\phong\AppData\Local\Temp\ccw7LjCa.s:154    .text.HAL_TIM_PeriodElapsedCallback:00000000 HAL_TIM_PeriodElapsedCallback
C:\Users\phong\AppData\Local\Temp\ccw7LjCa.s:176    .text.Error_Handler:00000000 $t
C:\Users\phong\AppData\Local\Temp\ccw7LjCa.s:182    .text.Error_Handler:00000000 Error_Handler
C:\Users\phong\AppData\Local\Temp\ccw7LjCa.s:214    .text.MX_TIM2_Init:00000000 $t
C:\Users\phong\AppData\Local\Temp\ccw7LjCa.s:219    .text.MX_TIM2_Init:00000000 MX_TIM2_Init
C:\Users\phong\AppData\Local\Temp\ccw7LjCa.s:322    .text.MX_TIM2_Init:00000064 $d
C:\Users\phong\AppData\Local\Temp\ccw7LjCa.s:538    .bss.htim2:00000000 htim2
C:\Users\phong\AppData\Local\Temp\ccw7LjCa.s:327    .text.SystemClock_Config:00000000 $t
C:\Users\phong\AppData\Local\Temp\ccw7LjCa.s:333    .text.SystemClock_Config:00000000 SystemClock_Config
C:\Users\phong\AppData\Local\Temp\ccw7LjCa.s:426    .text.main:00000000 $t
C:\Users\phong\AppData\Local\Temp\ccw7LjCa.s:432    .text.main:00000000 main
C:\Users\phong\AppData\Local\Temp\ccw7LjCa.s:526    .text.main:00000074 $d
C:\Users\phong\AppData\Local\Temp\ccw7LjCa.s:535    .bss.htim2:00000000 $d

UNDEFINED SYMBOLS
HAL_GPIO_WritePin
HAL_GPIO_Init
timerRun
HAL_TIM_Base_Init
HAL_TIM_ConfigClockSource
HAL_TIMEx_MasterConfigSynchronization
memset
HAL_RCC_OscConfig
HAL_RCC_ClockConfig
HAL_Init
HAL_TIM_Base_Start_IT
setTimer1
clearDisplay7Seg
display7Seg
HAL_GPIO_TogglePin
timer1_flag
