ARM GAS  C:\Users\phong\AppData\Local\Temp\ccS15jM2.s 			page 1


   1              		.cpu cortex-m3
   2              		.arch armv7-m
   3              		.fpu softvfp
   4              		.eabi_attribute 20, 1
   5              		.eabi_attribute 21, 1
   6              		.eabi_attribute 23, 3
   7              		.eabi_attribute 24, 1
   8              		.eabi_attribute 25, 1
   9              		.eabi_attribute 26, 1
  10              		.eabi_attribute 30, 1
  11              		.eabi_attribute 34, 1
  12              		.eabi_attribute 18, 4
  13              		.file	"software_timer.c"
  14              		.text
  15              	.Ltext0:
  16              		.cfi_sections	.debug_frame
  17              		.file 1 "Core/Src/software_timer.c"
  18              		.section	.text.setTimer1,"ax",%progbits
  19              		.align	1
  20              		.global	setTimer1
  21              		.syntax unified
  22              		.thumb
  23              		.thumb_func
  25              	setTimer1:
  26              	.LVL0:
  27              	.LFB0:
   1:Core/Src/software_timer.c **** /*
   2:Core/Src/software_timer.c ****  * software_timer.c
   3:Core/Src/software_timer.c ****  *
   4:Core/Src/software_timer.c ****  *  Created on: Sep 24, 2022
   5:Core/Src/software_timer.c ****  *      Author: KAI
   6:Core/Src/software_timer.c ****  */
   7:Core/Src/software_timer.c **** 
   8:Core/Src/software_timer.c **** #include "software_timer.h"
   9:Core/Src/software_timer.c **** 
  10:Core/Src/software_timer.c **** int timer1_counter = 0;
  11:Core/Src/software_timer.c **** int timer1_flag = 0;
  12:Core/Src/software_timer.c **** int timer2_counter = 0;
  13:Core/Src/software_timer.c **** int timer2_flag = 0;
  14:Core/Src/software_timer.c **** int timer3_counter = 0;
  15:Core/Src/software_timer.c **** int timer3_flag = 0;
  16:Core/Src/software_timer.c **** 
  17:Core/Src/software_timer.c **** void setTimer1(int duration)
  18:Core/Src/software_timer.c **** {
  28              		.loc 1 18 1 view -0
  29              		.cfi_startproc
  30              		@ args = 0, pretend = 0, frame = 0
  31              		@ frame_needed = 0, uses_anonymous_args = 0
  32              		@ link register save eliminated.
  19:Core/Src/software_timer.c **** 	timer1_counter = duration;
  33              		.loc 1 19 2 view .LVU1
  34              		.loc 1 19 17 is_stmt 0 view .LVU2
  35 0000 024B     		ldr	r3, .L2
  36 0002 1860     		str	r0, [r3]
  20:Core/Src/software_timer.c **** 	timer1_flag = 0;
  37              		.loc 1 20 2 is_stmt 1 view .LVU3
  38              		.loc 1 20 14 is_stmt 0 view .LVU4
ARM GAS  C:\Users\phong\AppData\Local\Temp\ccS15jM2.s 			page 2


  39 0004 024B     		ldr	r3, .L2+4
  40 0006 0022     		movs	r2, #0
  41 0008 1A60     		str	r2, [r3]
  21:Core/Src/software_timer.c **** }
  42              		.loc 1 21 1 view .LVU5
  43 000a 7047     		bx	lr
  44              	.L3:
  45              		.align	2
  46              	.L2:
  47 000c 00000000 		.word	timer1_counter
  48 0010 00000000 		.word	timer1_flag
  49              		.cfi_endproc
  50              	.LFE0:
  52              		.section	.text.setTimer2,"ax",%progbits
  53              		.align	1
  54              		.global	setTimer2
  55              		.syntax unified
  56              		.thumb
  57              		.thumb_func
  59              	setTimer2:
  60              	.LVL1:
  61              	.LFB1:
  22:Core/Src/software_timer.c **** void setTimer2(int duration)
  23:Core/Src/software_timer.c **** {
  62              		.loc 1 23 1 is_stmt 1 view -0
  63              		.cfi_startproc
  64              		@ args = 0, pretend = 0, frame = 0
  65              		@ frame_needed = 0, uses_anonymous_args = 0
  66              		@ link register save eliminated.
  24:Core/Src/software_timer.c **** 	timer2_counter = duration;
  67              		.loc 1 24 2 view .LVU7
  68              		.loc 1 24 17 is_stmt 0 view .LVU8
  69 0000 024B     		ldr	r3, .L5
  70 0002 1860     		str	r0, [r3]
  25:Core/Src/software_timer.c **** 	timer2_flag = 0;
  71              		.loc 1 25 2 is_stmt 1 view .LVU9
  72              		.loc 1 25 14 is_stmt 0 view .LVU10
  73 0004 024B     		ldr	r3, .L5+4
  74 0006 0022     		movs	r2, #0
  75 0008 1A60     		str	r2, [r3]
  26:Core/Src/software_timer.c **** }
  76              		.loc 1 26 1 view .LVU11
  77 000a 7047     		bx	lr
  78              	.L6:
  79              		.align	2
  80              	.L5:
  81 000c 00000000 		.word	timer2_counter
  82 0010 00000000 		.word	timer2_flag
  83              		.cfi_endproc
  84              	.LFE1:
  86              		.section	.text.setTimer3,"ax",%progbits
  87              		.align	1
  88              		.global	setTimer3
  89              		.syntax unified
  90              		.thumb
  91              		.thumb_func
  93              	setTimer3:
ARM GAS  C:\Users\phong\AppData\Local\Temp\ccS15jM2.s 			page 3


  94              	.LVL2:
  95              	.LFB2:
  27:Core/Src/software_timer.c **** void setTimer3(int duration)
  28:Core/Src/software_timer.c **** {
  96              		.loc 1 28 1 is_stmt 1 view -0
  97              		.cfi_startproc
  98              		@ args = 0, pretend = 0, frame = 0
  99              		@ frame_needed = 0, uses_anonymous_args = 0
 100              		@ link register save eliminated.
  29:Core/Src/software_timer.c **** 	timer3_counter = duration;
 101              		.loc 1 29 2 view .LVU13
 102              		.loc 1 29 17 is_stmt 0 view .LVU14
 103 0000 024B     		ldr	r3, .L8
 104 0002 1860     		str	r0, [r3]
  30:Core/Src/software_timer.c **** 	timer3_flag = 0;
 105              		.loc 1 30 2 is_stmt 1 view .LVU15
 106              		.loc 1 30 14 is_stmt 0 view .LVU16
 107 0004 024B     		ldr	r3, .L8+4
 108 0006 0022     		movs	r2, #0
 109 0008 1A60     		str	r2, [r3]
  31:Core/Src/software_timer.c **** }
 110              		.loc 1 31 1 view .LVU17
 111 000a 7047     		bx	lr
 112              	.L9:
 113              		.align	2
 114              	.L8:
 115 000c 00000000 		.word	timer3_counter
 116 0010 00000000 		.word	timer3_flag
 117              		.cfi_endproc
 118              	.LFE2:
 120              		.section	.text.timerRun,"ax",%progbits
 121              		.align	1
 122              		.global	timerRun
 123              		.syntax unified
 124              		.thumb
 125              		.thumb_func
 127              	timerRun:
 128              	.LFB3:
  32:Core/Src/software_timer.c **** void timerRun()
  33:Core/Src/software_timer.c **** {
 129              		.loc 1 33 1 is_stmt 1 view -0
 130              		.cfi_startproc
 131              		@ args = 0, pretend = 0, frame = 0
 132              		@ frame_needed = 0, uses_anonymous_args = 0
 133              		@ link register save eliminated.
  34:Core/Src/software_timer.c **** 	if (timer1_counter > 0)
 134              		.loc 1 34 2 view .LVU19
 135              		.loc 1 34 21 is_stmt 0 view .LVU20
 136 0000 134B     		ldr	r3, .L17
 137 0002 1B68     		ldr	r3, [r3]
 138              		.loc 1 34 5 view .LVU21
 139 0004 002B     		cmp	r3, #0
 140 0006 04DD     		ble	.L11
  35:Core/Src/software_timer.c **** 	{
  36:Core/Src/software_timer.c **** 		timer1_counter--;
 141              		.loc 1 36 3 is_stmt 1 view .LVU22
 142              		.loc 1 36 17 is_stmt 0 view .LVU23
ARM GAS  C:\Users\phong\AppData\Local\Temp\ccS15jM2.s 			page 4


 143 0008 013B     		subs	r3, r3, #1
 144 000a 114A     		ldr	r2, .L17
 145 000c 1360     		str	r3, [r2]
  37:Core/Src/software_timer.c **** 		if (timer1_counter <= 0)
 146              		.loc 1 37 3 is_stmt 1 view .LVU24
 147              		.loc 1 37 6 is_stmt 0 view .LVU25
 148 000e 002B     		cmp	r3, #0
 149 0010 12DD     		ble	.L14
 150              	.L11:
  38:Core/Src/software_timer.c **** 		{
  39:Core/Src/software_timer.c **** 			timer1_flag = 1;
  40:Core/Src/software_timer.c **** 		}
  41:Core/Src/software_timer.c **** 	}
  42:Core/Src/software_timer.c **** 	if (timer2_counter > 0)
 151              		.loc 1 42 2 is_stmt 1 view .LVU26
 152              		.loc 1 42 21 is_stmt 0 view .LVU27
 153 0012 104B     		ldr	r3, .L17+4
 154 0014 1B68     		ldr	r3, [r3]
 155              		.loc 1 42 5 view .LVU28
 156 0016 002B     		cmp	r3, #0
 157 0018 04DD     		ble	.L12
  43:Core/Src/software_timer.c **** 	{
  44:Core/Src/software_timer.c **** 		timer2_counter--;
 158              		.loc 1 44 3 is_stmt 1 view .LVU29
 159              		.loc 1 44 17 is_stmt 0 view .LVU30
 160 001a 013B     		subs	r3, r3, #1
 161 001c 0D4A     		ldr	r2, .L17+4
 162 001e 1360     		str	r3, [r2]
  45:Core/Src/software_timer.c **** 		if (timer2_counter <= 0)
 163              		.loc 1 45 3 is_stmt 1 view .LVU31
 164              		.loc 1 45 6 is_stmt 0 view .LVU32
 165 0020 002B     		cmp	r3, #0
 166 0022 0DDD     		ble	.L15
 167              	.L12:
  46:Core/Src/software_timer.c **** 		{
  47:Core/Src/software_timer.c **** 			timer2_flag = 1;
  48:Core/Src/software_timer.c **** 		}
  49:Core/Src/software_timer.c **** 	}
  50:Core/Src/software_timer.c **** 	if (timer3_counter > 0)
 168              		.loc 1 50 2 is_stmt 1 view .LVU33
 169              		.loc 1 50 21 is_stmt 0 view .LVU34
 170 0024 0C4B     		ldr	r3, .L17+8
 171 0026 1B68     		ldr	r3, [r3]
 172              		.loc 1 50 5 view .LVU35
 173 0028 002B     		cmp	r3, #0
 174 002a 04DD     		ble	.L10
  51:Core/Src/software_timer.c **** 	{
  52:Core/Src/software_timer.c **** 		timer3_counter--;
 175              		.loc 1 52 3 is_stmt 1 view .LVU36
 176              		.loc 1 52 17 is_stmt 0 view .LVU37
 177 002c 013B     		subs	r3, r3, #1
 178 002e 0A4A     		ldr	r2, .L17+8
 179 0030 1360     		str	r3, [r2]
  53:Core/Src/software_timer.c **** 		if (timer3_counter <= 0)
 180              		.loc 1 53 3 is_stmt 1 view .LVU38
 181              		.loc 1 53 6 is_stmt 0 view .LVU39
 182 0032 002B     		cmp	r3, #0
ARM GAS  C:\Users\phong\AppData\Local\Temp\ccS15jM2.s 			page 5


 183 0034 08DD     		ble	.L16
 184              	.L10:
  54:Core/Src/software_timer.c **** 		{
  55:Core/Src/software_timer.c **** 			timer3_flag = 1;
  56:Core/Src/software_timer.c **** 		}
  57:Core/Src/software_timer.c **** 	}
  58:Core/Src/software_timer.c **** }
 185              		.loc 1 58 1 view .LVU40
 186 0036 7047     		bx	lr
 187              	.L14:
  39:Core/Src/software_timer.c **** 		}
 188              		.loc 1 39 4 is_stmt 1 view .LVU41
  39:Core/Src/software_timer.c **** 		}
 189              		.loc 1 39 16 is_stmt 0 view .LVU42
 190 0038 084B     		ldr	r3, .L17+12
 191 003a 0122     		movs	r2, #1
 192 003c 1A60     		str	r2, [r3]
 193 003e E8E7     		b	.L11
 194              	.L15:
  47:Core/Src/software_timer.c **** 		}
 195              		.loc 1 47 4 is_stmt 1 view .LVU43
  47:Core/Src/software_timer.c **** 		}
 196              		.loc 1 47 16 is_stmt 0 view .LVU44
 197 0040 074B     		ldr	r3, .L17+16
 198 0042 0122     		movs	r2, #1
 199 0044 1A60     		str	r2, [r3]
 200 0046 EDE7     		b	.L12
 201              	.L16:
  55:Core/Src/software_timer.c **** 		}
 202              		.loc 1 55 4 is_stmt 1 view .LVU45
  55:Core/Src/software_timer.c **** 		}
 203              		.loc 1 55 16 is_stmt 0 view .LVU46
 204 0048 064B     		ldr	r3, .L17+20
 205 004a 0122     		movs	r2, #1
 206 004c 1A60     		str	r2, [r3]
 207              		.loc 1 58 1 view .LVU47
 208 004e F2E7     		b	.L10
 209              	.L18:
 210              		.align	2
 211              	.L17:
 212 0050 00000000 		.word	timer1_counter
 213 0054 00000000 		.word	timer2_counter
 214 0058 00000000 		.word	timer3_counter
 215 005c 00000000 		.word	timer1_flag
 216 0060 00000000 		.word	timer2_flag
 217 0064 00000000 		.word	timer3_flag
 218              		.cfi_endproc
 219              	.LFE3:
 221              		.global	timer3_flag
 222              		.section	.bss.timer3_flag,"aw",%nobits
 223              		.align	2
 226              	timer3_flag:
 227 0000 00000000 		.space	4
 228              		.global	timer3_counter
 229              		.section	.bss.timer3_counter,"aw",%nobits
 230              		.align	2
 233              	timer3_counter:
ARM GAS  C:\Users\phong\AppData\Local\Temp\ccS15jM2.s 			page 6


 234 0000 00000000 		.space	4
 235              		.global	timer2_flag
 236              		.section	.bss.timer2_flag,"aw",%nobits
 237              		.align	2
 240              	timer2_flag:
 241 0000 00000000 		.space	4
 242              		.global	timer2_counter
 243              		.section	.bss.timer2_counter,"aw",%nobits
 244              		.align	2
 247              	timer2_counter:
 248 0000 00000000 		.space	4
 249              		.global	timer1_flag
 250              		.section	.bss.timer1_flag,"aw",%nobits
 251              		.align	2
 254              	timer1_flag:
 255 0000 00000000 		.space	4
 256              		.global	timer1_counter
 257              		.section	.bss.timer1_counter,"aw",%nobits
 258              		.align	2
 261              	timer1_counter:
 262 0000 00000000 		.space	4
 263              		.text
 264              	.Letext0:
 265              		.file 2 "Core/Inc/software_timer.h"
ARM GAS  C:\Users\phong\AppData\Local\Temp\ccS15jM2.s 			page 7

